target datalayout = "e-m:e-p270:32:32-p271:32:32-p272:64:64-i64:64-i128:128-f80:128-n8:16:32:64-S128"
target triple = "x86_64-pc-linux-gnu"

%"class.std::__cxx11::basic_string" = type { %"struct.std::__cxx11::basic_string<char>::_Alloc_hider", i64, %union.anon }
%"struct.std::__cxx11::basic_string<char>::_Alloc_hider" = type { ptr }
%union.anon = type { i64, [8 x i8] }
%struct.pj_ctx = type <{ %"class.std::__cxx11::basic_string", i32, i32, i8, i8, [6 x i8], ptr, ptr, ptr, i32, i8, [3 x i8], i32, [4 x i8], %"class.std::__cxx11::basic_string", %"class.std::vector", ptr, ptr, ptr, %"class.std::map", i8, [7 x i8], %struct.projFileApiCallbackAndData, %"class.std::__cxx11::basic_string", %"class.std::__cxx11::basic_string", i8, [7 x i8], %"class.std::__cxx11::basic_string", %struct.projNetworkCallbacksAndData, %"class.std::__cxx11::basic_string", i8, [7 x i8], %struct.projGridChunkCache, i32, i32, i32, [4 x i8] }>
%"class.std::vector" = type { %"struct.std::_Vector_base" }
%"struct.std::_Vector_base" = type { %"struct.std::_Vector_base<std::__cxx11::basic_string<char>, std::allocator<std::__cxx11::basic_string<char>>>::_Vector_impl" }
%"struct.std::_Vector_base<std::__cxx11::basic_string<char>, std::allocator<std::__cxx11::basic_string<char>>>::_Vector_impl" = type { %"struct.std::_Vector_base<std::__cxx11::basic_string<char>, std::allocator<std::__cxx11::basic_string<char>>>::_Vector_impl_data" }
%"struct.std::_Vector_base<std::__cxx11::basic_string<char>, std::allocator<std::__cxx11::basic_string<char>>>::_Vector_impl_data" = type { ptr, ptr, ptr }
%"class.std::map" = type { %"class.std::_Rb_tree" }
%"class.std::_Rb_tree" = type { %"struct.std::_Rb_tree<std::__cxx11::basic_string<char>, std::pair<const std::__cxx11::basic_string<char>, std::__cxx11::basic_string<char>>, std::_Select1st<std::pair<const std::__cxx11::basic_string<char>, std::__cxx11::basic_string<char>>>, std::less<std::__cxx11::basic_string<char>>>::_Rb_tree_impl" }
%"struct.std::_Rb_tree<std::__cxx11::basic_string<char>, std::pair<const std::__cxx11::basic_string<char>, std::__cxx11::basic_string<char>>, std::_Select1st<std::pair<const std::__cxx11::basic_string<char>, std::__cxx11::basic_string<char>>>, std::less<std::__cxx11::basic_string<char>>>::_Rb_tree_impl" = type { [8 x i8], %"struct.std::_Rb_tree_header" }
%"struct.std::_Rb_tree_header" = type { %"struct.std::_Rb_tree_node_base", i64 }
%"struct.std::_Rb_tree_node_base" = type { i32, ptr, ptr, ptr }
%struct.projFileApiCallbackAndData = type { ptr, ptr, ptr, ptr, ptr, ptr, ptr, ptr, ptr, ptr, ptr }
%struct.projNetworkCallbacksAndData = type { i8, ptr, ptr, ptr, ptr, ptr }
%struct.projGridChunkCache = type <{ i8, [7 x i8], %"class.std::__cxx11::basic_string", i64, i32, [4 x i8] }>

; Function Attrs: mustprogress uwtable
define i32 @proj_context_set_network_callbacks(ptr noundef %0, ptr noundef %1, ptr noundef %2, ptr noundef %3, ptr noundef %4, ptr noundef %5) #5 {
  %7 = alloca i32, align 4
  %8 = alloca ptr, align 8
  %9 = alloca ptr, align 8
  %10 = alloca ptr, align 8
  %11 = alloca ptr, align 8
  %12 = alloca ptr, align 8
  %13 = alloca ptr, align 8
  store ptr %0, ptr %8, align 8, !tbaa !10
  store ptr %1, ptr %9, align 8, !tbaa !132
  store ptr %2, ptr %10, align 8, !tbaa !132
  store ptr %3, ptr %11, align 8, !tbaa !132
  store ptr %4, ptr %12, align 8, !tbaa !132
  store ptr %5, ptr %13, align 8, !tbaa !132
  %14 = load ptr, ptr %8, align 8, !tbaa !10
  %15 = icmp eq ptr %14, null
  br i1 %15, label %16, label %18

16:                                               ; preds = %6
  %17 = call noundef ptr @_Z18pj_get_default_ctxv()
  store ptr %17, ptr %8, align 8, !tbaa !10
  br label %18

18:                                               ; preds = %16, %6
  %19 = load ptr, ptr %9, align 8, !tbaa !132
  %20 = icmp ne ptr %19, null
  br i1 %20, label %21, label %30

21:                                               ; preds = %18
  %22 = load ptr, ptr %10, align 8, !tbaa !132
  %23 = icmp ne ptr %22, null
  br i1 %23, label %24, label %30

24:                                               ; preds = %21
  %25 = load ptr, ptr %11, align 8, !tbaa !132
  %26 = icmp ne ptr %25, null
  br i1 %26, label %27, label %30

27:                                               ; preds = %24
  %28 = load ptr, ptr %12, align 8, !tbaa !132
  %29 = icmp ne ptr %28, null
  br i1 %29, label %31, label %30

30:                                               ; preds = %27, %24, %21, %18
  store i32 0, ptr %7, align 4
  br label %52

31:                                               ; preds = %27
  %32 = load ptr, ptr %9, align 8, !tbaa !132
  %33 = load ptr, ptr %8, align 8, !tbaa !10
  %34 = getelementptr inbounds nuw %struct.pj_ctx, ptr %33, i32 0, i32 28
  %35 = getelementptr inbounds nuw %struct.projNetworkCallbacksAndData, ptr %34, i32 0, i32 1
  store ptr %32, ptr %35, align 8, !tbaa !171
  %36 = load ptr, ptr %10, align 8, !tbaa !132
  %37 = load ptr, ptr %8, align 8, !tbaa !10
  %38 = getelementptr inbounds nuw %struct.pj_ctx, ptr %37, i32 0, i32 28
  %39 = getelementptr inbounds nuw %struct.projNetworkCallbacksAndData, ptr %38, i32 0, i32 2
  store ptr %36, ptr %39, align 8, !tbaa !172
  %40 = load ptr, ptr %11, align 8, !tbaa !132
  %41 = load ptr, ptr %8, align 8, !tbaa !10
  %42 = getelementptr inbounds nuw %struct.pj_ctx, ptr %41, i32 0, i32 28
  %43 = getelementptr inbounds nuw %struct.projNetworkCallbacksAndData, ptr %42, i32 0, i32 3
  store ptr %40, ptr %43, align 8, !tbaa !167
  %44 = load ptr, ptr %12, align 8, !tbaa !132
  %45 = load ptr, ptr %8, align 8, !tbaa !10
  %46 = getelementptr inbounds nuw %struct.pj_ctx, ptr %45, i32 0, i32 28
  %47 = getelementptr inbounds nuw %struct.projNetworkCallbacksAndData, ptr %46, i32 0, i32 4
  store ptr %44, ptr %47, align 8, !tbaa !200
  %48 = load ptr, ptr %13, align 8, !tbaa !132
  %49 = load ptr, ptr %8, align 8, !tbaa !10
  %50 = getelementptr inbounds nuw %struct.pj_ctx, ptr %49, i32 0, i32 28
  %51 = getelementptr inbounds nuw %struct.projNetworkCallbacksAndData, ptr %50, i32 0, i32 5
  store ptr %48, ptr %51, align 8, !tbaa !168
  store i32 1, ptr %7, align 4
  br label %52

52:                                               ; preds = %31, %30
  %53 = load i32, ptr %7, align 4
  ret i32 %53
}