; Function Attrs: mustprogress uwtable
define range(i32 0, 2) i32 @proj_context_set_network_callbacks(ptr noundef writeonly %0, ptr noundef %1, ptr noundef %2, ptr noundef %3, ptr noundef %4, ptr noundef %5) local_unnamed_addr #3 {
  %7 = icmp eq ptr %0, null
  br i1 %7, label %8, label %10

8:                                                ; preds = %6
  %9 = tail call noundef ptr @_Z18pj_get_default_ctxv()
  br label %10

10:                                               ; preds = %8, %6
  %.020 = phi ptr [ %9, %8 ], [ %0, %6 ]
  %11 = icmp ne ptr %1, null
  %12 = icmp ne ptr %2, null
  %or.cond = and i1 %11, %12
  %13 = icmp ne ptr %3, null
  %or.cond3 = and i1 %or.cond, %13
  %14 = icmp ne ptr %4, null
  %or.cond5 = and i1 %or.cond3, %14
  br i1 %or.cond5, label %15, label %21

15:                                               ; preds = %10
  %16 = getelementptr inbounds nuw i8, ptr %.020, i64 424
  store ptr %1, ptr %16, align 8, !tbaa !191
  %17 = getelementptr inbounds nuw i8, ptr %.020, i64 432
  store ptr %2, ptr %17, align 8, !tbaa !192
  %18 = getelementptr inbounds nuw i8, ptr %.020, i64 440
  store ptr %3, ptr %18, align 8, !tbaa !184
  %19 = getelementptr inbounds nuw i8, ptr %.020, i64 448
  store ptr %4, ptr %19, align 8, !tbaa !206
  %20 = getelementptr inbounds nuw i8, ptr %.020, i64 456
  store ptr %5, ptr %20, align 8, !tbaa !185
  br label %21

21:                                               ; preds = %10, %15
  %.0 = phi i32 [ 1, %15 ], [ 0, %10 ]
  ret i32 %.0
}